Certificate:
    Data:
        Version: 3 (0x2)
        Serial Number: 3 (0x3)
    Signature Algorithm: md5WithRSAEncryption
        Issuer: C=NL, ST=GR, L=Groningen, O=Infradox/emailAddress=vpn@infradox.com
        Validity
            Not Before: Jul 23 22:53:33 2014 GMT
            Not After : Jul 20 22:53:33 2024 GMT
        Subject: C=NL, ST=GR, L=Groningen, O=Infradox, OU=Office, CN=infradox-client01/emailAddress=vpn@infradox.com
        Subject Public Key Info:
            Public Key Algorithm: rsaEncryption
                Public-Key: (2048 bit)
                Modulus:
                    00:cb:a1:48:1e:d1:ba:70:d0:61:89:21:04:96:96:
                    3b:f5:0c:cd:91:13:f4:e3:8e:a5:52:95:ed:d2:b5:
                    4d:3c:fb:77:9e:2a:d8:f8:82:17:a8:57:31:16:a2:
                    60:74:cd:fb:bc:6f:49:ac:b3:0e:8c:71:5b:3e:4e:
                    7e:f3:73:f0:c1:01:65:5c:10:2d:28:ab:eb:23:b7:
                    8a:cd:3f:df:31:98:0e:87:bb:03:3f:85:52:9a:62:
                    d4:0c:2c:30:ad:d7:af:f8:a9:5b:d9:2c:36:db:51:
                    e7:74:c4:f2:40:ca:da:54:fa:db:97:8f:05:f5:24:
                    7b:1a:1b:b0:3f:57:ac:3a:c7:36:25:37:c7:92:e6:
                    7e:bb:5b:b3:74:00:28:be:1b:2c:e1:7c:64:2f:12:
                    d7:d5:c8:fc:16:5c:3a:5f:2d:bb:da:f8:19:43:ee:
                    5b:f5:14:ca:06:db:a6:ad:6c:be:d4:d4:57:40:98:
                    48:64:1b:61:df:97:30:c3:ea:75:f8:18:78:45:f2:
                    79:ae:ab:80:c6:c4:c1:36:96:da:68:9b:31:3f:32:
                    2c:bd:37:37:09:df:e5:36:49:7d:d7:49:fa:c5:26:
                    99:f3:6d:11:c1:66:d0:7b:21:f3:d7:43:9f:10:02:
                    79:0e:5c:9d:51:7b:d6:cb:34:a0:d5:ad:15:2f:01:
                    7f:39
                Exponent: 65537 (0x10001)
        X509v3 extensions:
            X509v3 Basic Constraints: 
                CA:FALSE
            Netscape Comment: 
                Easy-RSA Generated Certificate
            X509v3 Subject Key Identifier: 
                33:B9:30:65:E0:00:DC:E8:7F:12:41:6A:98:E7:1A:B0:8D:6A:15:E1
            X509v3 Authority Key Identifier: 
                keyid:DA:B2:DA:CC:5C:3B:49:5D:20:C0:30:32:D9:E8:F2:74:1E:25:DE:B7
                DirName:/C=NL/ST=GR/L=Groningen/O=Infradox/emailAddress=vpn@infradox.com
                serial:F9:26:0E:71:75:46:EE:06

            X509v3 Extended Key Usage: 
                TLS Web Client Authentication
            X509v3 Key Usage: 
                Digital Signature
    Signature Algorithm: md5WithRSAEncryption
         19:a4:61:49:3f:db:82:45:32:62:87:94:dc:3e:55:74:ac:de:
         e5:01:b8:61:30:1c:e6:79:d4:0e:7c:31:bb:a5:f3:c1:ee:0b:
         06:af:dd:3b:30:39:21:17:90:d3:f6:b9:d1:45:07:18:27:cd:
         1f:2b:b8:5b:58:29:69:d1:28:66:49:18:16:8c:5c:1b:d9:12:
         43:e9:a1:24:93:fe:41:9f:4e:42:b2:af:ba:9c:ce:37:ef:d4:
         cc:cd:d1:1e:5b:30:de:61:58:5e:98:dc:1b:98:80:a8:c1:14:
         34:a5:b6:00:94:e0:3e:5b:50:1e:11:84:9d:9d:d3:20:e5:cc:
         e7:c8:08:d0:8b:09:32:4c:f7:c7:cc:97:33:3e:e9:94:ae:ec:
         a7:25:f1:09:62:51:01:ee:b2:4f:b4:fa:81:66:8b:c9:5e:6c:
         86:91:97:83:7d:d2:74:45:f8:3a:34:fb:e4:6f:8b:4a:6e:73:
         64:a2:16:68:f1:03:d4:3e:af:1c:f6:e8:45:db:d2:09:2f:7e:
         92:42:ff:3d:34:24:06:a9:98:b7:26:53:09:63:bd:d6:56:32:
         c8:d9:b7:d6:f4:e6:28:20:5b:01:fe:c9:0a:f0:f4:01:44:e7:
         8a:ac:d3:a9:2f:89:94:a8:f7:fb:00:e8:66:c4:fb:73:7d:fe:
         17:7c:ca:18
-----BEGIN CERTIFICATE-----
MIIEhTCCA22gAwIBAgIBAzANBgkqhkiG9w0BAQQFADBiMQswCQYDVQQGEwJOTDEL
MAkGA1UECBMCR1IxEjAQBgNVBAcTCUdyb25pbmdlbjERMA8GA1UEChMISW5mcmFk
b3gxHzAdBgkqhkiG9w0BCQEWEHZwbkBpbmZyYWRveC5jb20wHhcNMTQwNzIzMjI1
MzMzWhcNMjQwNzIwMjI1MzMzWjCBjzELMAkGA1UEBhMCTkwxCzAJBgNVBAgTAkdS
MRIwEAYDVQQHEwlHcm9uaW5nZW4xETAPBgNVBAoTCEluZnJhZG94MQ8wDQYDVQQL
EwZPZmZpY2UxGjAYBgNVBAMTEWluZnJhZG94LWNsaWVudDAxMR8wHQYJKoZIhvcN
AQkBFhB2cG5AaW5mcmFkb3guY29tMIIBIjANBgkqhkiG9w0BAQEFAAOCAQ8AMIIB
CgKCAQEAy6FIHtG6cNBhiSEElpY79QzNkRP0446lUpXt0rVNPPt3nirY+IIXqFcx
FqJgdM37vG9JrLMOjHFbPk5+83PwwQFlXBAtKKvrI7eKzT/fMZgOh7sDP4VSmmLU
DCwwrdev+Klb2Sw221HndMTyQMraVPrbl48F9SR7GhuwP1esOsc2JTfHkuZ+u1uz
dAAovhss4XxkLxLX1cj8Flw6Xy272vgZQ+5b9RTKBtumrWy+1NRXQJhIZBth35cw
w+p1+Bh4RfJ5rquAxsTBNpbaaJsxPzIsvTc3Cd/lNkl910n6xSaZ820RwWbQeyHz
10OfEAJ5DlydUXvWyzSg1a0VLwF/OQIDAQABo4IBFjCCARIwCQYDVR0TBAIwADAt
BglghkgBhvhCAQ0EIBYeRWFzeS1SU0EgR2VuZXJhdGVkIENlcnRpZmljYXRlMB0G
A1UdDgQWBBQzuTBl4ADc6H8SQWqY5xqwjWoV4TCBlAYDVR0jBIGMMIGJgBTastrM
XDtJXSDAMDLZ6PJ0HiXet6FmpGQwYjELMAkGA1UEBhMCTkwxCzAJBgNVBAgTAkdS
MRIwEAYDVQQHEwlHcm9uaW5nZW4xETAPBgNVBAoTCEluZnJhZG94MR8wHQYJKoZI
hvcNAQkBFhB2cG5AaW5mcmFkb3guY29tggkA+SYOcXVG7gYwEwYDVR0lBAwwCgYI
KwYBBQUHAwIwCwYDVR0PBAQDAgeAMA0GCSqGSIb3DQEBBAUAA4IBAQAZpGFJP9uC
RTJih5TcPlV0rN7lAbhhMBzmedQOfDG7pfPB7gsGr907MDkhF5DT9rnRRQcYJ80f
K7hbWClp0ShmSRgWjFwb2RJD6aEkk/5Bn05Csq+6nM4379TMzdEeWzDeYVhemNwb
mICowRQ0pbYAlOA+W1AeEYSdndMg5cznyAjQiwkyTPfHzJczPumUruynJfEJYlEB
7rJPtPqBZovJXmyGkZeDfdJ0Rfg6NPvkb4tKbnNkohZo8QPUPq8c9uhF29IJL36S
Qv89NCQGqZi3JlMJY73WVjLI2bfW9OYoIFsB/skK8PQBROeKrNOpL4mUqPf7AOhm
xPtzff4XfMoY
-----END CERTIFICATE-----
